target datalayout = "e-m:e-p270:32:32-p271:32:32-p272:64:64-i64:64-i128:128-f80:128-n8:16:32:64-S128"
target triple = "x86_64-pc-linux-gnu"

%struct.Vec_Int_t_ = type { i32, i32, ptr }
%struct.Vec_Str_t_ = type { i32, i32, ptr }
%struct.Cba_Ntk_t_ = type { ptr, i32, i32, i32, i8, %struct.Vec_Int_t_, %struct.Vec_Int_t_, %struct.Vec_Int_t_, %struct.Vec_Int_t_, %struct.Vec_Str_t_, %struct.Vec_Int_t_, %struct.Vec_Int_t_, %struct.Vec_Int_t_, %struct.Vec_Int_t_, %struct.Vec_Int_t_, %struct.Vec_Int_t_, %struct.Vec_Int_t_, %struct.Vec_Int_t_, %struct.Vec_Int_t_, %struct.Vec_Int_t_, %struct.Vec_Int_t_, %struct.Vec_Int_t_, %struct.Vec_Int_t_, %struct.Vec_Int_t_, %struct.Vec_Int_t_, %struct.Vec_Int_t_, %struct.Vec_Int_t_, %struct.Vec_Int_t_, ptr, %struct.Vec_Int_t_, %struct.Vec_Int_t_ }

; Function Attrs: inlinehint nounwind uwtable
define internal signext i8 @Vec_StrEntry(ptr noundef %0, i32 noundef %1) #2 {
  %3 = alloca ptr, align 8
  %4 = alloca i32, align 4
  store ptr %0, ptr %3, align 8, !tbaa !101
  store i32 %1, ptr %4, align 4, !tbaa !28
  %5 = load ptr, ptr %3, align 8, !tbaa !101
  %6 = getelementptr inbounds nuw %struct.Vec_Str_t_, ptr %5, i32 0, i32 2
  %7 = load ptr, ptr %6, align 8, !tbaa !107
  %8 = load i32, ptr %4, align 4, !tbaa !28
  %9 = sext i32 %8 to i64
  %10 = getelementptr inbounds i8, ptr %7, i64 %9
  %11 = load i8, ptr %10, align 1, !tbaa !31
  ret i8 %11
}

; Function Attrs: inlinehint nounwind uwtable
define internal i32 @Cba_TypeIsSeq(i32 noundef %0) #2 {
  %2 = alloca i32, align 4
  store i32 %0, ptr %2, align 4, !tbaa !28
  %3 = load i32, ptr %2, align 4, !tbaa !28
  %4 = icmp uge i32 %3, 76
  br i1 %4, label %5, label %8

5:                                                ; preds = %1
  %6 = load i32, ptr %2, align 4, !tbaa !28
  %7 = icmp ule i32 %6, 87
  br label %8

8:                                                ; preds = %5, %1
  %9 = phi i1 [ false, %1 ], [ %7, %5 ]
  %10 = zext i1 %9 to i32
  ret i32 %10
}

; Function Attrs: inlinehint nounwind uwtable
define internal i32 @Cba_TypeIsBox(i32 noundef %0) #2 {
  %2 = alloca i32, align 4
  store i32 %0, ptr %2, align 4, !tbaa !28
  %3 = load i32, ptr %2, align 4, !tbaa !28
  %4 = icmp uge i32 %3, 3
  br i1 %4, label %5, label %8

5:                                                ; preds = %1
  %6 = load i32, ptr %2, align 4, !tbaa !28
  %7 = icmp ult i32 %6, 90
  br label %8

8:                                                ; preds = %5, %1
  %9 = phi i1 [ false, %1 ], [ %7, %5 ]
  %10 = zext i1 %9 to i32
  ret i32 %10
}

; Function Attrs: inlinehint nounwind uwtable
define internal i32 @Cba_ObjType(ptr noundef %0, i32 noundef %1) #2 {
  %3 = alloca ptr, align 8
  %4 = alloca i32, align 4
  store ptr %0, ptr %3, align 8, !tbaa !43
  store i32 %1, ptr %4, align 4, !tbaa !28
  %5 = load ptr, ptr %3, align 8, !tbaa !43
  %6 = getelementptr inbounds nuw %struct.Cba_Ntk_t_, ptr %5, i32 0, i32 9
  %7 = load i32, ptr %4, align 4, !tbaa !28
  %8 = call signext i8 @Vec_StrEntry(ptr noundef %6, i32 noundef %7)
  %9 = zext i8 %8 to i32
  ret i32 %9
}

; Function Attrs: inlinehint nounwind uwtable
define internal i32 @Cba_ObjIsSeq(ptr noundef %0, i32 noundef %1) #2 {
  %3 = alloca ptr, align 8
  %4 = alloca i32, align 4
  store ptr %0, ptr %3, align 8, !tbaa !43
  store i32 %1, ptr %4, align 4, !tbaa !28
  %5 = load ptr, ptr %3, align 8, !tbaa !43
  %6 = load i32, ptr %4, align 4, !tbaa !28
  %7 = call i32 @Cba_ObjIsBoxUser(ptr noundef %5, i32 noundef %6)
  %8 = icmp ne i32 %7, 0
  br i1 %8, label %9, label %18

9:                                                ; preds = %2
  %10 = load ptr, ptr %3, align 8, !tbaa !43
  %11 = load i32, ptr %4, align 4, !tbaa !28
  %12 = call ptr @Cba_ObjNtk(ptr noundef %10, i32 noundef %11)
  %13 = getelementptr inbounds nuw %struct.Cba_Ntk_t_, ptr %12, i32 0, i32 4
  %14 = load i8, ptr %13, align 4
  %15 = lshr i8 %14, 2
  %16 = and i8 %15, 1
  %17 = zext i8 %16 to i32
  br label %23

18:                                               ; preds = %2
  %19 = load ptr, ptr %3, align 8, !tbaa !43
  %20 = load i32, ptr %4, align 4, !tbaa !28
  %21 = call i32 @Cba_ObjType(ptr noundef %19, i32 noundef %20)
  %22 = call i32 @Cba_TypeIsSeq(i32 noundef %21)
  br label %23

23:                                               ; preds = %18, %9
  %24 = phi i32 [ %17, %9 ], [ %22, %18 ]
  ret i32 %24
}

; Function Attrs: inlinehint nounwind uwtable
define internal i32 @Cba_ObjIsBoxUser(ptr noundef %0, i32 noundef %1) #2 {
  %3 = alloca ptr, align 8
  %4 = alloca i32, align 4
  store ptr %0, ptr %3, align 8, !tbaa !43
  store i32 %1, ptr %4, align 4, !tbaa !28
  %5 = load ptr, ptr %3, align 8, !tbaa !43
  %6 = load i32, ptr %4, align 4, !tbaa !28
  %7 = call i32 @Cba_ObjType(ptr noundef %5, i32 noundef %6)
  %8 = icmp eq i32 %7, 3
  %9 = zext i1 %8 to i32
  ret i32 %9
}

; Function Attrs: inlinehint nounwind uwtable
define internal i32 @Cba_ObjIsBox(ptr noundef %0, i32 noundef %1) #2 {
  %3 = alloca ptr, align 8
  %4 = alloca i32, align 4
  store ptr %0, ptr %3, align 8, !tbaa !43
  store i32 %1, ptr %4, align 4, !tbaa !28
  %5 = load ptr, ptr %3, align 8, !tbaa !43
  %6 = load i32, ptr %4, align 4, !tbaa !28
  %7 = call i32 @Cba_ObjType(ptr noundef %5, i32 noundef %6)
  %8 = call i32 @Cba_TypeIsBox(i32 noundef %7)
  ret i32 %8
}

; Function Attrs: inlinehint nounwind uwtable
define internal i32 @Vec_StrSize(ptr noundef %0) #2 {
  %2 = alloca ptr, align 8
  store ptr %0, ptr %2, align 8, !tbaa !101
  %3 = load ptr, ptr %2, align 8, !tbaa !101
  %4 = getelementptr inbounds nuw %struct.Vec_Str_t_, ptr %3, i32 0, i32 1
  %5 = load i32, ptr %4, align 4, !tbaa !103
  ret i32 %5
}

; Function Attrs: inlinehint nounwind uwtable
define internal i32 @Cba_NtkIsSeq(ptr noundef %0) #2 {
  %2 = alloca i32, align 4
  %3 = alloca ptr, align 8
  %4 = alloca i32, align 4
  %5 = alloca i32, align 4
  store ptr %0, ptr %3, align 8, !tbaa !43
  call void @llvm.lifetime.start.p0(i64 4, ptr %4) #12
  %6 = load ptr, ptr %3, align 8, !tbaa !43
  %7 = getelementptr inbounds nuw %struct.Cba_Ntk_t_, ptr %6, i32 0, i32 4
  %8 = load i8, ptr %7, align 4
  %9 = lshr i8 %8, 2
  %10 = and i8 %9, 1
  %11 = zext i8 %10 to i32
  %12 = icmp ne i32 %11, 0
  br i1 %12, label %13, label %14

13:                                               ; preds = %1
  store i32 1, ptr %2, align 4
  store i32 1, ptr %5, align 4
  br label %77

14:                                               ; preds = %1
  %15 = load ptr, ptr %3, align 8, !tbaa !43
  %16 = getelementptr inbounds nuw %struct.Cba_Ntk_t_, ptr %15, i32 0, i32 4
  %17 = load i8, ptr %16, align 4
  %18 = lshr i8 %17, 1
  %19 = and i8 %18, 1
  %20 = zext i8 %19 to i32
  %21 = icmp ne i32 %20, 0
  br i1 %21, label %22, label %23

22:                                               ; preds = %14
  store i32 0, ptr %2, align 4
  store i32 1, ptr %5, align 4
  br label %77

23:                                               ; preds = %14
  store i32 1, ptr %4, align 4, !tbaa !28
  br label %24

24:                                               ; preds = %68, %23
  %25 = load i32, ptr %4, align 4, !tbaa !28
  %26 = load ptr, ptr %3, align 8, !tbaa !43
  %27 = getelementptr inbounds nuw %struct.Cba_Ntk_t_, ptr %26, i32 0, i32 9
  %28 = call i32 @Vec_StrSize(ptr noundef %27)
  %29 = icmp slt i32 %25, %28
  br i1 %29, label %30, label %71

30:                                               ; preds = %24
  %31 = load ptr, ptr %3, align 8, !tbaa !43
  %32 = load i32, ptr %4, align 4, !tbaa !28
  %33 = call i32 @Cba_ObjIsBox(ptr noundef %31, i32 noundef %32)
  %34 = icmp ne i32 %33, 0
  br i1 %34, label %36, label %35

35:                                               ; preds = %30
  br label %67

36:                                               ; preds = %30
  %37 = load ptr, ptr %3, align 8, !tbaa !43
  %38 = load i32, ptr %4, align 4, !tbaa !28
  %39 = call i32 @Cba_ObjIsBoxUser(ptr noundef %37, i32 noundef %38)
  %40 = icmp ne i32 %39, 0
  br i1 %40, label %41, label %54

41:                                               ; preds = %36
  %42 = load ptr, ptr %3, align 8, !tbaa !43
  %43 = load i32, ptr %4, align 4, !tbaa !28
  %44 = call ptr @Cba_ObjNtk(ptr noundef %42, i32 noundef %43)
  %45 = call i32 @Cba_NtkIsSeq(ptr noundef %44)
  %46 = icmp ne i32 %45, 0
  br i1 %46, label %47, label %53

47:                                               ; preds = %41
  %48 = load ptr, ptr %3, align 8, !tbaa !43
  %49 = getelementptr inbounds nuw %struct.Cba_Ntk_t_, ptr %48, i32 0, i32 4
  %50 = load i8, ptr %49, align 4
  %51 = and i8 %50, -5
  %52 = or i8 %51, 4
  store i8 %52, ptr %49, align 4
  store i32 1, ptr %2, align 4
  store i32 1, ptr %5, align 4
  br label %77

53:                                               ; preds = %41
  br label %66

54:                                               ; preds = %36
  %55 = load ptr, ptr %3, align 8, !tbaa !43
  %56 = load i32, ptr %4, align 4, !tbaa !28
  %57 = call i32 @Cba_ObjIsSeq(ptr noundef %55, i32 noundef %56)
  %58 = icmp ne i32 %57, 0
  br i1 %58, label %59, label %65

59:                                               ; preds = %54
  %60 = load ptr, ptr %3, align 8, !tbaa !43
  %61 = getelementptr inbounds nuw %struct.Cba_Ntk_t_, ptr %60, i32 0, i32 4
  %62 = load i8, ptr %61, align 4
  %63 = and i8 %62, -5
  %64 = or i8 %63, 4
  store i8 %64, ptr %61, align 4
  store i32 1, ptr %2, align 4
  store i32 1, ptr %5, align 4
  br label %77

65:                                               ; preds = %54
  br label %66

66:                                               ; preds = %65, %53
  br label %67

67:                                               ; preds = %66, %35
  br label %68

68:                                               ; preds = %67
  %69 = load i32, ptr %4, align 4, !tbaa !28
  %70 = add nsw i32 %69, 1
  store i32 %70, ptr %4, align 4, !tbaa !28
  br label %24, !llvm.loop !122

71:                                               ; preds = %24
  %72 = load ptr, ptr %3, align 8, !tbaa !43
  %73 = getelementptr inbounds nuw %struct.Cba_Ntk_t_, ptr %72, i32 0, i32 4
  %74 = load i8, ptr %73, align 4
  %75 = and i8 %74, -3
  %76 = or i8 %75, 2
  store i8 %76, ptr %73, align 4
  store i32 0, ptr %2, align 4
  store i32 1, ptr %5, align 4
  br label %77

77:                                               ; preds = %71, %59, %47, %22, %13
  call void @llvm.lifetime.end.p0(i64 4, ptr %4) #12
  %78 = load i32, ptr %2, align 4
  ret i32 %78
}