; Function Attrs: inlinehint nounwind uwtable
define internal fastcc range(i32 0, 2) i32 @Cba_NtkIsSeq(ptr noundef captures(none) %0) unnamed_addr #4 {
  %2 = getelementptr inbounds nuw i8, ptr %0, i64 20
  %3 = load i8, ptr %2, align 4
  %4 = and i8 %3, 4
  %.not = icmp eq i8 %4, 0
  br i1 %.not, label %5, label %33

5:                                                ; preds = %1
  %6 = and i8 %3, 2
  %.not17 = icmp eq i8 %6, 0
  br i1 %.not17, label %.preheader, label %33

.preheader:                                       ; preds = %5
  %7 = getelementptr i8, ptr %0, i64 92
  %.val25 = load i32, ptr %7, align 4, !tbaa !45
  %8 = icmp sgt i32 %.val25, 1
  br i1 %8, label %.lr.ph, label %._crit_edge

.lr.ph:                                           ; preds = %.preheader
  %9 = getelementptr i8, ptr %0, i64 96
  br label %10

10:                                               ; preds = %.lr.ph, %28
  %.val29 = phi i32 [ %.val25, %.lr.ph ], [ %.val, %28 ]
  %indvars.iv = phi i64 [ 1, %.lr.ph ], [ %indvars.iv.next, %28 ]
  %.val23 = load ptr, ptr %9, align 8, !tbaa !47
  %11 = getelementptr inbounds nuw i8, ptr %.val23, i64 %indvars.iv
  %12 = load i8, ptr %11, align 1, !tbaa !3
  %13 = add i8 %12, -90
  %14 = icmp ult i8 %13, -87
  br i1 %14, label %28, label %15

15:                                               ; preds = %10
  %.not24 = icmp eq i8 %12, 3
  br i1 %.not24, label %16, label %Cba_ObjIsSeq.exit

16:                                               ; preds = %15
  %17 = trunc nuw nsw i64 %indvars.iv to i32
  %18 = tail call fastcc ptr @Cba_ObjNtk(ptr noundef nonnull %0, i32 noundef %17)
  %19 = tail call fastcc i32 @Cba_NtkIsSeq(ptr noundef %18)
  %.not21 = icmp eq i32 %19, 0
  br i1 %.not21, label %._crit_edge28, label %20

._crit_edge28:                                    ; preds = %16
  %.val.pre = load i32, ptr %7, align 4, !tbaa !45
  br label %28

20:                                               ; preds = %16
  %21 = load i8, ptr %2, align 4
  %22 = or i8 %21, 4
  br label %.sink.split

Cba_ObjIsSeq.exit:                                ; preds = %15
  %23 = add nsw i8 %12, -88
  %24 = icmp ult i8 %23, -12
  br i1 %24, label %28, label %25

25:                                               ; preds = %Cba_ObjIsSeq.exit
  %26 = load i8, ptr %2, align 4
  %27 = or i8 %26, 4
  br label %.sink.split

28:                                               ; preds = %._crit_edge28, %10, %Cba_ObjIsSeq.exit
  %.val = phi i32 [ %.val.pre, %._crit_edge28 ], [ %.val29, %10 ], [ %.val29, %Cba_ObjIsSeq.exit ]
  %indvars.iv.next = add nuw nsw i64 %indvars.iv, 1
  %29 = sext i32 %.val to i64
  %30 = icmp slt i64 %indvars.iv.next, %29
  br i1 %30, label %10, label %._crit_edge.loopexit, !llvm.loop !105

._crit_edge.loopexit:                             ; preds = %28
  %.pre = load i8, ptr %2, align 4
  br label %._crit_edge

._crit_edge:                                      ; preds = %._crit_edge.loopexit, %.preheader
  %31 = phi i8 [ %.pre, %._crit_edge.loopexit ], [ %3, %.preheader ]
  %32 = or i8 %31, 2
  br label %.sink.split

.sink.split:                                      ; preds = %20, %25, %._crit_edge
  %.sink = phi i8 [ %32, %._crit_edge ], [ %27, %25 ], [ %22, %20 ]
  %.016.ph = phi i32 [ 0, %._crit_edge ], [ 1, %25 ], [ 1, %20 ]
  store i8 %.sink, ptr %2, align 4
  br label %33

33:                                               ; preds = %.sink.split, %5, %1
  %.016 = phi i32 [ 1, %1 ], [ 0, %5 ], [ %.016.ph, %.sink.split ]
  ret i32 %.016
}